; Function Attrs: nofree norecurse nosync nounwind memory(argmem: readwrite) uwtable
define void @ff_ivi_mc_avg_8x8_delta(ptr noundef captures(none) %0, ptr noundef readonly captures(none) %1, ptr noundef readonly captures(none) %2, i64 noundef %3, i32 noundef %4, i32 noundef %5) local_unnamed_addr #2 {
  %7 = alloca [64 x i16], align 16
  call void @llvm.lifetime.start.p0(i64 128, ptr nonnull %7) #5
  switch i32 %4, label %ivi_mc_8x8_no_delta.exit [
    i32 0, label %.preheader.i
    i32 1, label %.preheader82.i
    i32 2, label %.preheader85.i
    i32 3, label %.preheader88.i.preheader
  ]

.preheader88.i.preheader:                         ; preds = %6
  %.pre.pre = load i16, ptr %1, align 2, !tbaa !27
  br label %.preheader88.i

.preheader.i:                                     ; preds = %6, %.preheader.i
  %.068110.i = phi i32 [ %8, %.preheader.i ], [ %4, %6 ]
  %.072109.i = phi ptr [ %9, %.preheader.i ], [ %7, %6 ]
  %.076108.i = phi ptr [ %10, %.preheader.i ], [ %1, %6 ]
  call void @llvm.memcpy.p0.p0.i64(ptr noundef nonnull align 2 dereferenceable(16) %.072109.i, ptr noundef nonnull align 2 dereferenceable(16) %.076108.i, i64 16, i1 false), !tbaa !27
  %8 = add nuw nsw i32 %.068110.i, 1
  %9 = getelementptr inbounds nuw i8, ptr %.072109.i, i64 16
  %10 = getelementptr inbounds i16, ptr %.076108.i, i64 %3
  %exitcond131.not.i = icmp eq i32 %8, 8
  br i1 %exitcond131.not.i, label %ivi_mc_8x8_no_delta.exit, label %.preheader.i, !llvm.loop !62

.preheader82.i:                                   ; preds = %6, %21
  %.169106.i = phi i32 [ %22, %21 ], [ 0, %6 ]
  %.173105.i = phi ptr [ %23, %21 ], [ %7, %6 ]
  %.177104.i = phi ptr [ %24, %21 ], [ %1, %6 ]
  %.pre32 = load i16, ptr %.177104.i, align 2, !tbaa !27
  br label %11

11:                                               ; preds = %11, %.preheader82.i
  %12 = phi i16 [ %.pre32, %.preheader82.i ], [ %15, %11 ]
  %indvars.iv122.i = phi i64 [ 0, %.preheader82.i ], [ %indvars.iv.next123.i, %11 ]
  %13 = sext i16 %12 to i32
  %indvars.iv.next123.i = add nuw nsw i64 %indvars.iv122.i, 1
  %14 = getelementptr inbounds nuw i16, ptr %.177104.i, i64 %indvars.iv.next123.i
  %15 = load i16, ptr %14, align 2, !tbaa !27
  %16 = sext i16 %15 to i32
  %17 = add nsw i32 %16, %13
  %18 = lshr i32 %17, 1
  %19 = trunc i32 %18 to i16
  %20 = getelementptr inbounds nuw i16, ptr %.173105.i, i64 %indvars.iv122.i
  store i16 %19, ptr %20, align 2, !tbaa !27
  %exitcond125.not.i = icmp eq i64 %indvars.iv.next123.i, 8
  br i1 %exitcond125.not.i, label %21, label %11, !llvm.loop !63

21:                                               ; preds = %11
  %22 = add nuw nsw i32 %.169106.i, 1
  %23 = getelementptr inbounds nuw i8, ptr %.173105.i, i64 16
  %24 = getelementptr inbounds i16, ptr %.177104.i, i64 %3
  %exitcond126.not.i = icmp eq i32 %22, 8
  br i1 %exitcond126.not.i, label %ivi_mc_8x8_no_delta.exit, label %.preheader82.i, !llvm.loop !64

.preheader85.i:                                   ; preds = %6, %36
  %.pn111.i = phi ptr [ %.0102.i, %36 ], [ %1, %6 ]
  %.270101.i = phi i32 [ %37, %36 ], [ 0, %6 ]
  %.274100.i = phi ptr [ %38, %36 ], [ %7, %6 ]
  %.0102.i = getelementptr i16, ptr %.pn111.i, i64 %3
  br label %25

25:                                               ; preds = %25, %.preheader85.i
  %indvars.iv117.i = phi i64 [ 0, %.preheader85.i ], [ %indvars.iv.next118.i, %25 ]
  %26 = getelementptr inbounds nuw i16, ptr %.pn111.i, i64 %indvars.iv117.i
  %27 = load i16, ptr %26, align 2, !tbaa !27
  %28 = sext i16 %27 to i32
  %29 = getelementptr inbounds nuw i16, ptr %.0102.i, i64 %indvars.iv117.i
  %30 = load i16, ptr %29, align 2, !tbaa !27
  %31 = sext i16 %30 to i32
  %32 = add nsw i32 %31, %28
  %33 = lshr i32 %32, 1
  %34 = trunc i32 %33 to i16
  %35 = getelementptr inbounds nuw i16, ptr %.274100.i, i64 %indvars.iv117.i
  store i16 %34, ptr %35, align 2, !tbaa !27
  %indvars.iv.next118.i = add nuw nsw i64 %indvars.iv117.i, 1
  %exitcond120.not.i = icmp eq i64 %indvars.iv.next118.i, 8
  br i1 %exitcond120.not.i, label %36, label %25, !llvm.loop !65

36:                                               ; preds = %25
  %37 = add nuw nsw i32 %.270101.i, 1
  %38 = getelementptr inbounds nuw i8, ptr %.274100.i, i64 16
  %exitcond121.not.i = icmp eq i32 %37, 8
  br i1 %exitcond121.not.i, label %ivi_mc_8x8_no_delta.exit, label %.preheader85.i, !llvm.loop !66

.preheader88.i:                                   ; preds = %.preheader88.i.preheader, %56
  %.pre = phi i16 [ %.pre31, %56 ], [ %.pre.pre, %.preheader88.i.preheader ]
  %.pn.i = phi ptr [ %.196.i, %56 ], [ %1, %.preheader88.i.preheader ]
  %.37195.i = phi i32 [ %57, %56 ], [ 0, %.preheader88.i.preheader ]
  %.37594.i = phi ptr [ %58, %56 ], [ %7, %.preheader88.i.preheader ]
  %.196.i = getelementptr i16, ptr %.pn.i, i64 %3
  %.pre31 = load i16, ptr %.196.i, align 2, !tbaa !27
  br label %39

39:                                               ; preds = %39, %.preheader88.i
  %40 = phi i16 [ %.pre31, %.preheader88.i ], [ %50, %39 ]
  %41 = phi i16 [ %.pre, %.preheader88.i ], [ %44, %39 ]
  %indvars.iv.i = phi i64 [ 0, %.preheader88.i ], [ %indvars.iv.next.i, %39 ]
  %42 = sext i16 %41 to i32
  %indvars.iv.next.i = add nuw nsw i64 %indvars.iv.i, 1
  %43 = getelementptr inbounds nuw i16, ptr %.pn.i, i64 %indvars.iv.next.i
  %44 = load i16, ptr %43, align 2, !tbaa !27
  %45 = sext i16 %44 to i32
  %46 = add nsw i32 %45, %42
  %47 = sext i16 %40 to i32
  %48 = add nsw i32 %46, %47
  %49 = getelementptr inbounds nuw i16, ptr %.196.i, i64 %indvars.iv.next.i
  %50 = load i16, ptr %49, align 2, !tbaa !27
  %51 = sext i16 %50 to i32
  %52 = add nsw i32 %48, %51
  %53 = lshr i32 %52, 2
  %54 = trunc i32 %53 to i16
  %55 = getelementptr inbounds nuw i16, ptr %.37594.i, i64 %indvars.iv.i
  store i16 %54, ptr %55, align 2, !tbaa !27
  %exitcond.not.i = icmp eq i64 %indvars.iv.next.i, 8
  br i1 %exitcond.not.i, label %56, label %39, !llvm.loop !67

56:                                               ; preds = %39
  %57 = add nuw nsw i32 %.37195.i, 1
  %58 = getelementptr inbounds nuw i8, ptr %.37594.i, i64 16
  %exitcond116.not.i = icmp eq i32 %57, 8
  br i1 %exitcond116.not.i, label %ivi_mc_8x8_no_delta.exit, label %.preheader88.i, !llvm.loop !68

ivi_mc_8x8_no_delta.exit:                         ; preds = %56, %36, %21, %.preheader.i, %6
  call fastcc void @ivi_mc_8x8_delta(ptr noundef nonnull %7, i64 noundef 8, ptr noundef %2, i64 noundef %3, i32 noundef %5)
  br label %.preheader

.preheader:                                       ; preds = %ivi_mc_8x8_no_delta.exit, %68
  %indvars.iv27 = phi i64 [ 0, %ivi_mc_8x8_no_delta.exit ], [ %indvars.iv.next28, %68 ]
  %.01621 = phi ptr [ %0, %ivi_mc_8x8_no_delta.exit ], [ %69, %68 ]
  %59 = shl nuw nsw i64 %indvars.iv27, 3
  br label %60

60:                                               ; preds = %.preheader, %60
  %indvars.iv = phi i64 [ 0, %.preheader ], [ %indvars.iv.next, %60 ]
  %61 = add nuw nsw i64 %indvars.iv, %59
  %62 = getelementptr inbounds nuw [64 x i16], ptr %7, i64 0, i64 %61
  %63 = load i16, ptr %62, align 2, !tbaa !27
  %64 = ashr i16 %63, 1
  %65 = getelementptr inbounds nuw i16, ptr %.01621, i64 %indvars.iv
  %66 = load i16, ptr %65, align 2, !tbaa !27
  %67 = add i16 %66, %64
  store i16 %67, ptr %65, align 2, !tbaa !27
  %indvars.iv.next = add nuw nsw i64 %indvars.iv, 1
  %exitcond.not = icmp eq i64 %indvars.iv.next, 8
  br i1 %exitcond.not, label %68, label %60, !llvm.loop !95

68:                                               ; preds = %60
  %indvars.iv.next28 = add nuw nsw i64 %indvars.iv27, 1
  %69 = getelementptr inbounds i16, ptr %.01621, i64 %3
  %exitcond30.not = icmp eq i64 %indvars.iv.next28, 8
  br i1 %exitcond30.not, label %70, label %.preheader, !llvm.loop !96

70:                                               ; preds = %68
  call void @llvm.lifetime.end.p0(i64 128, ptr nonnull %7) #5
  ret void
}